target datalayout = "e-m:e-p270:32:32-p271:32:32-p272:64:64-i64:64-i128:128-f80:128-n8:16:32:64-S128"
target triple = "x86_64-pc-linux-gnu"

%class.EmdL1 = type { i32, i32, i32, i32, i32, i32, %"class.std::vector", %"class.std::vector.3", %"class.std::vector.3", %"class.std::vector.8", %"class.std::vector.13", %"class.std::vector.13", %"class.std::vector.13", %"class.std::vector.18", %"class.std::vector.23", ptr, ptr, i32, ptr, i32, %"class.std::vector.18", %"class.std::vector.18", i32, i32 }
%"class.std::vector" = type { %"struct.std::_Vector_base" }
%"struct.std::_Vector_base" = type { %"struct.std::_Vector_base<std::vector<cvEMDNode>, std::allocator<std::vector<cvEMDNode>>>::_Vector_impl" }
%"struct.std::_Vector_base<std::vector<cvEMDNode>, std::allocator<std::vector<cvEMDNode>>>::_Vector_impl" = type { %"struct.std::_Vector_base<std::vector<cvEMDNode>, std::allocator<std::vector<cvEMDNode>>>::_Vector_impl_data" }
%"struct.std::_Vector_base<std::vector<cvEMDNode>, std::allocator<std::vector<cvEMDNode>>>::_Vector_impl_data" = type { ptr, ptr, ptr }
%"class.std::vector.3" = type { %"struct.std::_Vector_base.4" }
%"struct.std::_Vector_base.4" = type { %"struct.std::_Vector_base<std::vector<cvEMDEdge>, std::allocator<std::vector<cvEMDEdge>>>::_Vector_impl" }
%"struct.std::_Vector_base<std::vector<cvEMDEdge>, std::allocator<std::vector<cvEMDEdge>>>::_Vector_impl" = type { %"struct.std::_Vector_base<std::vector<cvEMDEdge>, std::allocator<std::vector<cvEMDEdge>>>::_Vector_impl_data" }
%"struct.std::_Vector_base<std::vector<cvEMDEdge>, std::allocator<std::vector<cvEMDEdge>>>::_Vector_impl_data" = type { ptr, ptr, ptr }
%"class.std::vector.8" = type { %"struct.std::_Vector_base.9" }
%"struct.std::_Vector_base.9" = type { %"struct.std::_Vector_base<std::vector<std::vector<cvEMDNode>>, std::allocator<std::vector<std::vector<cvEMDNode>>>>::_Vector_impl" }
%"struct.std::_Vector_base<std::vector<std::vector<cvEMDNode>>, std::allocator<std::vector<std::vector<cvEMDNode>>>>::_Vector_impl" = type { %"struct.std::_Vector_base<std::vector<std::vector<cvEMDNode>>, std::allocator<std::vector<std::vector<cvEMDNode>>>>::_Vector_impl_data" }
%"struct.std::_Vector_base<std::vector<std::vector<cvEMDNode>>, std::allocator<std::vector<std::vector<cvEMDNode>>>>::_Vector_impl_data" = type { ptr, ptr, ptr }
%"class.std::vector.13" = type { %"struct.std::_Vector_base.14" }
%"struct.std::_Vector_base.14" = type { %"struct.std::_Vector_base<std::vector<std::vector<cvEMDEdge>>, std::allocator<std::vector<std::vector<cvEMDEdge>>>>::_Vector_impl" }
%"struct.std::_Vector_base<std::vector<std::vector<cvEMDEdge>>, std::allocator<std::vector<std::vector<cvEMDEdge>>>>::_Vector_impl" = type { %"struct.std::_Vector_base<std::vector<std::vector<cvEMDEdge>>, std::allocator<std::vector<std::vector<cvEMDEdge>>>>::_Vector_impl_data" }
%"struct.std::_Vector_base<std::vector<std::vector<cvEMDEdge>>, std::allocator<std::vector<std::vector<cvEMDEdge>>>>::_Vector_impl_data" = type { ptr, ptr, ptr }
%"class.std::vector.23" = type { %"struct.std::_Vector_base.24" }
%"struct.std::_Vector_base.24" = type { %"struct.std::_Vector_base<cvEMDNode *, std::allocator<cvEMDNode *>>::_Vector_impl" }
%"struct.std::_Vector_base<cvEMDNode *, std::allocator<cvEMDNode *>>::_Vector_impl" = type { %"struct.std::_Vector_base<cvEMDNode *, std::allocator<cvEMDNode *>>::_Vector_impl_data" }
%"struct.std::_Vector_base<cvEMDNode *, std::allocator<cvEMDNode *>>::_Vector_impl_data" = type { ptr, ptr, ptr }
%"class.std::vector.18" = type { %"struct.std::_Vector_base.19" }
%"struct.std::_Vector_base.19" = type { %"struct.std::_Vector_base<cvEMDEdge *, std::allocator<cvEMDEdge *>>::_Vector_impl" }
%"struct.std::_Vector_base<cvEMDEdge *, std::allocator<cvEMDEdge *>>::_Vector_impl" = type { %"struct.std::_Vector_base<cvEMDEdge *, std::allocator<cvEMDEdge *>>::_Vector_impl_data" }
%"struct.std::_Vector_base<cvEMDEdge *, std::allocator<cvEMDEdge *>>::_Vector_impl_data" = type { ptr, ptr, ptr }

; Function Attrs: mustprogress uwtable
define hidden noundef zeroext i1 @_ZN5EmdL114greedySolutionEv(ptr noundef nonnull align 8 dereferenceable(336) %0) #4 align 2 {
  %2 = alloca ptr, align 8
  store ptr %0, ptr %2, align 8, !tbaa !3
  %3 = load ptr, ptr %2, align 8
  %4 = getelementptr inbounds nuw %class.EmdL1, ptr %3, i32 0, i32 0
  %5 = load i32, ptr %4, align 8, !tbaa !81
  %6 = icmp eq i32 %5, 2
  br i1 %6, label %7, label %9

7:                                                ; preds = %1
  %8 = call noundef zeroext i1 @_ZN5EmdL115greedySolution2Ev(ptr noundef nonnull align 8 dereferenceable(336) %3)
  br label %11

9:                                                ; preds = %1
  %10 = call noundef zeroext i1 @_ZN5EmdL115greedySolution3Ev(ptr noundef nonnull align 8 dereferenceable(336) %3)
  br label %11

11:                                               ; preds = %9, %7
  %12 = phi i1 [ %8, %7 ], [ %10, %9 ]
  ret i1 %12
}