; Function Attrs: mustprogress uwtable
define hidden noundef zeroext i1 @_ZN5EmdL114greedySolutionEv(ptr noundef nonnull align 8 captures(none) dereferenceable(336) %0) local_unnamed_addr #3 align 2 {
  %2 = load i32, ptr %0, align 8, !tbaa !25
  %3 = icmp eq i32 %2, 2
  br i1 %3, label %4, label %6

4:                                                ; preds = %1
  %5 = tail call noundef zeroext i1 @_ZN5EmdL115greedySolution2Ev(ptr noundef nonnull align 8 dereferenceable(336) %0)
  br label %8

6:                                                ; preds = %1
  %7 = tail call noundef zeroext i1 @_ZN5EmdL115greedySolution3Ev(ptr noundef nonnull align 8 dereferenceable(336) %0)
  br label %8

8:                                                ; preds = %6, %4
  ret i1 true
}